target datalayout = "e-m:e-p270:32:32-p271:32:32-p272:64:64-i64:64-i128:128-f80:128-n8:16:32:64-S128"
target triple = "x86_64-pc-linux-gnu"

%class.anon.109 = type { ptr, ptr }
%"struct.Luau::BlockedTypePack" = type { i64, ptr }

; Function Attrs: inlinehint mustprogress uwtable
define internal void @"_ZZN4Luau16toStringDetailedEPKNS_11TypePackVarERNS_15ToStringOptionsEENK3$_1clINS_15BlockedTypePackEEEDaT_"(ptr noundef nonnull align 8 dereferenceable(16) %0, i64 %1, ptr %2) #8 align 2 {
  %4 = alloca %"struct.Luau::BlockedTypePack", align 8
  %5 = alloca ptr, align 8
  %6 = getelementptr inbounds nuw { i64, ptr }, ptr %4, i32 0, i32 0
  store i64 %1, ptr %6, align 8
  %7 = getelementptr inbounds nuw { i64, ptr }, ptr %4, i32 0, i32 1
  store ptr %2, ptr %7, align 8
  store ptr %0, ptr %5, align 8, !tbaa !137
  %8 = load ptr, ptr %5, align 8
  %9 = getelementptr inbounds nuw %class.anon.109, ptr %8, i32 0, i32 0
  %10 = load ptr, ptr %9, align 8, !tbaa !1210
  %11 = getelementptr inbounds nuw %class.anon.109, ptr %8, i32 0, i32 1
  %12 = load ptr, ptr %11, align 8, !tbaa !245
  call void @_ZN4Luau19TypePackStringifierclEPKNS_11TypePackVarERKNS_15BlockedTypePackE(ptr noundef nonnull align 8 dereferenceable(36) %10, ptr noundef %12, ptr noundef nonnull align 8 dereferenceable(16) %4)
  ret void
}

; Function Attrs: mustprogress uwtable
define internal void @"_ZN4LuauL8fnVisitVIZNS_16toStringDetailedEPKNS_11TypePackVarERNS_15ToStringOptionsEE3$_1KNS_15BlockedTypePackEEEvRT_PNSt11conditionalIXsr3stdE10is_const_vIT0_EEKvvE4typeE"(ptr noundef nonnull align 8 dereferenceable(16) %0, ptr noundef %1) #5 {
  %3 = alloca ptr, align 8
  %4 = alloca ptr, align 8
  %5 = alloca %"struct.Luau::BlockedTypePack", align 8
  store ptr %0, ptr %3, align 8, !tbaa !137
  store ptr %1, ptr %4, align 8, !tbaa !137
  %6 = load ptr, ptr %3, align 8, !tbaa !137
  %7 = load ptr, ptr %4, align 8, !tbaa !137
  call void @llvm.memcpy.p0.p0.i64(ptr align 8 %5, ptr align 8 %7, i64 16, i1 false), !tbaa.struct !1209
  %8 = getelementptr inbounds nuw { i64, ptr }, ptr %5, i32 0, i32 0
  %9 = load i64, ptr %8, align 8
  %10 = getelementptr inbounds nuw { i64, ptr }, ptr %5, i32 0, i32 1
  %11 = load ptr, ptr %10, align 8
  call void @"_ZZN4Luau16toStringDetailedEPKNS_11TypePackVarERNS_15ToStringOptionsEENK3$_1clINS_15BlockedTypePackEEEDaT_"(ptr noundef nonnull align 8 dereferenceable(16) %6, i64 %9, ptr %11)
  ret void
}